; ModuleID = '54/966.c'
source_filename = "54/966.c"
target datalayout = "e-m:e-p270:32:32-p271:32:32-p272:64:64-i64:64-f80:128-n8:16:32:64-S128"
target triple = "x86_64-pc-linux-gnu"

@.str = private unnamed_addr constant [6 x i8] c"%d %d\00", align 1
@.str.1 = private unnamed_addr constant [3 x i8] c"%d\00", align 1

; Function Attrs: noinline nounwind uwtable
define dso_local i32 @main(i32 %0, i8** %1) #0 {
  %3 = alloca i32, align 4
  %4 = alloca i32, align 4
  %5 = alloca i8**, align 8
  %6 = alloca i32, align 4
  %7 = alloca i32, align 4
  %8 = alloca i32, align 4
  %9 = alloca i32, align 4
  store i32 0, i32* %3, align 4
  store i32 %0, i32* %4, align 4
  store i8** %1, i8*** %5, align 8
  %10 = call i32 (i8*, ...) @__isoc99_scanf(i8* getelementptr inbounds ([6 x i8], [6 x i8]* @.str, i64 0, i64 0), i32* %7, i32* %8)
  store i32 1, i32* %6, align 4
  br label %11

11:                                               ; preds = %25, %2
  %12 = load i32, i32* %6, align 4
  %13 = icmp sle i32 %12, 1000000000
  br i1 %13, label %14, label %28

14:                                               ; preds = %11
  %15 = load i32, i32* %7, align 4
  %16 = load i32, i32* %8, align 4
  %17 = load i32, i32* %6, align 4
  %18 = call i32 @judge(i32 %15, i32 %16, i32 %17)
  store i32 %18, i32* %9, align 4
  %19 = load i32, i32* %9, align 4
  %20 = icmp eq i32 %19, 1
  br i1 %20, label %21, label %24

21:                                               ; preds = %14
  %22 = load i32, i32* %6, align 4
  %23 = call i32 (i8*, ...) @printf(i8* getelementptr inbounds ([3 x i8], [3 x i8]* @.str.1, i64 0, i64 0), i32 %22)
  br label %28

24:                                               ; preds = %14
  br label %25

25:                                               ; preds = %24
  %26 = load i32, i32* %6, align 4
  %27 = add nsw i32 %26, 1
  store i32 %27, i32* %6, align 4
  br label %11

28:                                               ; preds = %21, %11
  ret i32 0
}

declare dso_local i32 @__isoc99_scanf(i8*, ...) #1

; Function Attrs: noinline nounwind uwtable
define dso_local i32 @judge(i32 %0, i32 %1, i32 %2) #0 {
  %4 = alloca i32, align 4
  %5 = alloca i32, align 4
  %6 = alloca i32, align 4
  %7 = alloca i32, align 4
  %8 = alloca i32, align 4
  %9 = alloca i32, align 4
  store i32 %0, i32* %5, align 4
  store i32 %1, i32* %6, align 4
  store i32 %2, i32* %7, align 4
  store i32 1, i32* %9, align 4
  br label %10

10:                                               ; preds = %33, %3
  %11 = load i32, i32* %9, align 4
  %12 = load i32, i32* %5, align 4
  %13 = icmp sle i32 %11, %12
  br i1 %13, label %14, label %36

14:                                               ; preds = %10
  %15 = load i32, i32* %7, align 4
  %16 = load i32, i32* %5, align 4
  %17 = srem i32 %15, %16
  store i32 %17, i32* %8, align 4
  %18 = load i32, i32* %7, align 4
  %19 = load i32, i32* %8, align 4
  %20 = sub nsw i32 %18, %19
  %21 = load i32, i32* %7, align 4
  %22 = load i32, i32* %5, align 4
  %23 = sdiv i32 %21, %22
  %24 = sub nsw i32 %20, %23
  store i32 %24, i32* %7, align 4
  %25 = load i32, i32* %8, align 4
  %26 = load i32, i32* %6, align 4
  %27 = icmp ne i32 %25, %26
  br i1 %27, label %31, label %28

28:                                               ; preds = %14
  %29 = load i32, i32* %7, align 4
  %30 = icmp eq i32 %29, 0
  br i1 %30, label %31, label %32

31:                                               ; preds = %28, %14
  br label %36

32:                                               ; preds = %28
  br label %33

33:                                               ; preds = %32
  %34 = load i32, i32* %9, align 4
  %35 = add nsw i32 %34, 1
  store i32 %35, i32* %9, align 4
  br label %10

36:                                               ; preds = %31, %10
  %37 = load i32, i32* %9, align 4
  %38 = load i32, i32* %5, align 4
  %39 = add nsw i32 %38, 1
  %40 = icmp eq i32 %37, %39
  br i1 %40, label %41, label %42

41:                                               ; preds = %36
  store i32 1, i32* %4, align 4
  br label %43

42:                                               ; preds = %36
  store i32 0, i32* %4, align 4
  br label %43

43:                                               ; preds = %42, %41
  %44 = load i32, i32* %4, align 4
  ret i32 %44
}

declare dso_local i32 @printf(i8*, ...) #1


!llvm.module.flags = !{!0}
!llvm.ident = !{!1}

!0 = !{i32 1, !"wchar_size", i32 4}
!1 = !{!"clang version 10.0.0-4ubuntu1 "}
